; Function Attrs: mustprogress uwtable
define hidden noalias noundef ptr @_Z7fail_ifP5probe(ptr noundef %p) local_unnamed_addr #3 personality ptr @__gxx_personality_v0 {
entry:
  %call = tail call noalias noundef ptr @_ZN6memory8allocateEm(i64 noundef 24)
  %m_ref_count.i.i = getelementptr inbounds i8, ptr %call, i64 8
  store i32 0, ptr %m_ref_count.i.i, align 8
  store ptr getelementptr inbounds ({ [25 x ptr] }, ptr @_ZTV14fail_if_tactic, i64 0, i32 0, i64 2), ptr %call, align 8
  %m_p.i = getelementptr inbounds i8, ptr %call, i64 16
  store ptr %p, ptr %m_p.i, align 8
  %tobool.not.i.i.i = icmp eq ptr %p, null
  br i1 %tobool.not.i.i.i, label %_ZN14fail_if_tacticC2EP5probe.exit, label %if.then.i.i.i

if.then.i.i.i:                                    ; preds = %entry
  %m_ref_count.i.i.i.i = getelementptr inbounds i8, ptr %p, i64 8
  %0 = load i32, ptr %m_ref_count.i.i.i.i, align 8
  %inc.i.i.i.i = add i32 %0, 1
  store i32 %inc.i.i.i.i, ptr %m_ref_count.i.i.i.i, align 8
  br label %_ZN14fail_if_tacticC2EP5probe.exit

_ZN14fail_if_tacticC2EP5probe.exit:               ; preds = %entry, %if.then.i.i.i
  ret ptr %call
}